; Function Attrs: nofree norecurse nosync nounwind memory(argmem: read) uwtable
define range(i32 0, 2) i32 @isMatrix4Unitary(ptr noundef readonly byval(%struct.ComplexMatrix4) align 8 captures(none) %0) local_unnamed_addr #6 {
  %2 = getelementptr inbounds nuw i8, ptr %0, i64 128
  br label %.preheader46

.preheader46:                                     ; preds = %1, %.critedge
  %indvars.iv63 = phi i64 [ 0, %1 ], [ %indvars.iv.next64, %.critedge ]
  br label %.preheader

3:                                                ; preds = %4
  %indvars.iv.next60 = add nuw nsw i64 %indvars.iv59, 1
  %exitcond62 = icmp eq i64 %indvars.iv.next60, 4
  br i1 %exitcond62, label %.critedge, label %.preheader

.preheader:                                       ; preds = %.preheader46, %3
  %indvars.iv59 = phi i64 [ 0, %.preheader46 ], [ %indvars.iv.next60, %3 ]
  br label %11

4:                                                ; preds = %11
  %5 = icmp eq i64 %indvars.iv63, %indvars.iv59
  %6 = uitofp i1 %5 to double
  %7 = fsub double %22, %6
  %8 = fmul double %7, %7
  %9 = tail call double @llvm.fmuladd.f64(double %26, double %26, double %8)
  %10 = fcmp ule double %9, 1.000000e-26
  br i1 %10, label %3, label %.loopexit

11:                                               ; preds = %.preheader, %11
  %indvars.iv = phi i64 [ 0, %.preheader ], [ %indvars.iv.next, %11 ]
  %.03851 = phi double [ 0.000000e+00, %.preheader ], [ %22, %11 ]
  %.04549 = phi double [ 0.000000e+00, %.preheader ], [ %26, %11 ]
  %12 = getelementptr inbounds nuw [4 x [4 x double]], ptr %0, i64 0, i64 %indvars.iv63, i64 %indvars.iv
  %13 = load double, ptr %12, align 8, !tbaa !9
  %14 = getelementptr inbounds nuw [4 x [4 x double]], ptr %0, i64 0, i64 %indvars.iv59, i64 %indvars.iv
  %15 = load double, ptr %14, align 8, !tbaa !9
  %16 = getelementptr inbounds nuw [4 x [4 x double]], ptr %2, i64 0, i64 %indvars.iv63, i64 %indvars.iv
  %17 = load double, ptr %16, align 8, !tbaa !9
  %18 = getelementptr inbounds nuw [4 x [4 x double]], ptr %2, i64 0, i64 %indvars.iv59, i64 %indvars.iv
  %19 = load double, ptr %18, align 8, !tbaa !9
  %20 = fmul double %17, %19
  %21 = tail call double @llvm.fmuladd.f64(double %13, double %15, double %20)
  %22 = fadd double %.03851, %21
  %23 = fneg double %19
  %24 = fmul double %13, %23
  %25 = tail call double @llvm.fmuladd.f64(double %17, double %15, double %24)
  %26 = fadd double %.04549, %25
  %indvars.iv.next = add nuw nsw i64 %indvars.iv, 1
  %exitcond.not = icmp eq i64 %indvars.iv.next, 4
  br i1 %exitcond.not, label %4, label %11

.critedge:                                        ; preds = %3
  %indvars.iv.next64 = add nuw nsw i64 %indvars.iv63, 1
  %exitcond66 = icmp eq i64 %indvars.iv.next64, 4
  br i1 %exitcond66, label %.loopexit, label %.preheader46

.loopexit:                                        ; preds = %.critedge, %4
  %spec.select = zext i1 %10 to i32
  ret i32 %spec.select
}